; Function Attrs: mustprogress uwtable
define hidden void @_ZN4cvc58internal6theory11quantifiers17SygusUnifStrategy23staticLearnRedundantOpsERSt3mapINS0_12NodeTemplateILb1EEESt6vectorIS6_SaIS6_EESt4lessIS6_ESaISt4pairIKS6_S9_EEE(ptr noundef nonnull align 8 captures(address) dereferenceable(208) %0, ptr noundef nonnull align 8 dereferenceable(48) %1) local_unnamed_addr #3 align 2 personality ptr @__gxx_personality_v0 {
  %3 = alloca %"struct.cvc5::internal::theory::quantifiers::StrategyRestrictions", align 8
  call void @llvm.lifetime.start.p0(i64 56, ptr nonnull %3) #24
  store i8 0, ptr %3, align 8, !tbaa !245
  %4 = getelementptr inbounds nuw i8, ptr %3, i64 1
  store i8 1, ptr %4, align 1, !tbaa !250
  %5 = getelementptr inbounds nuw i8, ptr %3, i64 16
  store i32 0, ptr %5, align 8, !tbaa !42
  %6 = getelementptr inbounds nuw i8, ptr %3, i64 24
  store ptr null, ptr %6, align 8, !tbaa !43
  %7 = getelementptr inbounds nuw i8, ptr %3, i64 32
  store ptr %5, ptr %7, align 8, !tbaa !44
  %8 = getelementptr inbounds nuw i8, ptr %3, i64 40
  store ptr %5, ptr %8, align 8, !tbaa !45
  %9 = getelementptr inbounds nuw i8, ptr %3, i64 48
  store i64 0, ptr %9, align 8, !tbaa !46
  invoke void @_ZN4cvc58internal6theory11quantifiers17SygusUnifStrategy23staticLearnRedundantOpsERSt3mapINS0_12NodeTemplateILb1EEESt6vectorIS6_SaIS6_EESt4lessIS6_ESaISt4pairIKS6_S9_EEERNS2_20StrategyRestrictionsE(ptr noundef nonnull align 8 dereferenceable(208) %0, ptr noundef nonnull align 8 dereferenceable(48) %1, ptr noundef nonnull align 8 dereferenceable(56) %3)
          to label %10 unwind label %16

10:                                               ; preds = %2
  %11 = getelementptr inbounds nuw i8, ptr %3, i64 8
  %12 = load ptr, ptr %6, align 8, !tbaa !43
  invoke void @_ZNSt8_Rb_treeIN4cvc58internal12NodeTemplateILb1EEESt4pairIKS3_St13unordered_setIjSt4hashIjESt8equal_toIjESaIjEEESt10_Select1stISD_ESt4lessIS3_ESaISD_EE8_M_eraseEPSt13_Rb_tree_nodeISD_E(ptr noundef nonnull align 8 dereferenceable(48) %11, ptr noundef %12)
          to label %_ZN4cvc58internal6theory11quantifiers20StrategyRestrictionsD2Ev.exit unwind label %13

13:                                               ; preds = %10
  %14 = landingpad { ptr, i32 }
          catch ptr null
  %15 = extractvalue { ptr, i32 } %14, 0
  call void @__clang_call_terminate(ptr %15) #25
  unreachable

_ZN4cvc58internal6theory11quantifiers20StrategyRestrictionsD2Ev.exit: ; preds = %10
  call void @llvm.lifetime.end.p0(i64 56, ptr nonnull %3) #24
  ret void

16:                                               ; preds = %2
  %17 = landingpad { ptr, i32 }
          cleanup
  call void @_ZN4cvc58internal6theory11quantifiers20StrategyRestrictionsD2Ev(ptr noundef nonnull align 8 dereferenceable(56) %3) #24
  call void @llvm.lifetime.end.p0(i64 56, ptr nonnull %3) #24
  resume { ptr, i32 } %17
}